; ModuleID = '46/862.c'
source_filename = "46/862.c"
target datalayout = "e-m:e-p270:32:32-p271:32:32-p272:64:64-i64:64-f80:128-n8:16:32:64-S128"
target triple = "x86_64-pc-linux-gnu"

@.str = private unnamed_addr constant [5 x i8] c"%d%d\00", align 1
@.str.1 = private unnamed_addr constant [3 x i8] c"%d\00", align 1
@.str.2 = private unnamed_addr constant [4 x i8] c"%d\0A\00", align 1

; Function Attrs: noinline nounwind uwtable
define dso_local i32 @main() #0 {
  %1 = alloca i32, align 4
  %2 = alloca [100 x [100 x i32]], align 16
  %3 = alloca i32, align 4
  %4 = alloca i32, align 4
  %5 = alloca i32, align 4
  %6 = alloca i32, align 4
  %7 = alloca i32, align 4
  store i32 0, i32* %1, align 4
  store i32 0, i32* %7, align 4
  %8 = call i32 (i8*, ...) @__isoc99_scanf(i8* getelementptr inbounds ([5 x i8], [5 x i8]* @.str, i64 0, i64 0), i32* %3, i32* %4)
  store i32 0, i32* %5, align 4
  br label %9

9:                                                ; preds = %30, %0
  %10 = load i32, i32* %5, align 4
  %11 = load i32, i32* %3, align 4
  %12 = icmp slt i32 %10, %11
  br i1 %12, label %13, label %33

13:                                               ; preds = %9
  store i32 0, i32* %6, align 4
  br label %14

14:                                               ; preds = %26, %13
  %15 = load i32, i32* %6, align 4
  %16 = load i32, i32* %4, align 4
  %17 = icmp slt i32 %15, %16
  br i1 %17, label %18, label %29

18:                                               ; preds = %14
  %19 = load i32, i32* %5, align 4
  %20 = sext i32 %19 to i64
  %21 = getelementptr inbounds [100 x [100 x i32]], [100 x [100 x i32]]* %2, i64 0, i64 %20
  %22 = load i32, i32* %6, align 4
  %23 = sext i32 %22 to i64
  %24 = getelementptr inbounds [100 x i32], [100 x i32]* %21, i64 0, i64 %23
  %25 = call i32 (i8*, ...) @__isoc99_scanf(i8* getelementptr inbounds ([3 x i8], [3 x i8]* @.str.1, i64 0, i64 0), i32* %24)
  br label %26

26:                                               ; preds = %18
  %27 = load i32, i32* %6, align 4
  %28 = add nsw i32 %27, 1
  store i32 %28, i32* %6, align 4
  br label %14

29:                                               ; preds = %14
  br label %30

30:                                               ; preds = %29
  %31 = load i32, i32* %5, align 4
  %32 = add nsw i32 %31, 1
  store i32 %32, i32* %5, align 4
  br label %9

33:                                               ; preds = %9
  br label %34

34:                                               ; preds = %128, %33
  %35 = load i32, i32* %7, align 4
  %36 = load i32, i32* %3, align 4
  %37 = sub nsw i32 %36, 1
  %38 = icmp slt i32 %35, %37
  br i1 %38, label %39, label %44

39:                                               ; preds = %34
  %40 = load i32, i32* %7, align 4
  %41 = load i32, i32* %4, align 4
  %42 = sub nsw i32 %41, 1
  %43 = icmp slt i32 %40, %42
  br label %44

44:                                               ; preds = %39, %34
  %45 = phi i1 [ false, %34 ], [ %43, %39 ]
  br i1 %45, label %46, label %135

46:                                               ; preds = %44
  %47 = load i32, i32* %7, align 4
  store i32 %47, i32* %5, align 4
  %48 = load i32, i32* %7, align 4
  store i32 %48, i32* %6, align 4
  br label %49

49:                                               ; preds = %63, %46
  %50 = load i32, i32* %6, align 4
  %51 = load i32, i32* %4, align 4
  %52 = sub nsw i32 %51, 1
  %53 = icmp slt i32 %50, %52
  br i1 %53, label %54, label %66

54:                                               ; preds = %49
  %55 = load i32, i32* %5, align 4
  %56 = sext i32 %55 to i64
  %57 = getelementptr inbounds [100 x [100 x i32]], [100 x [100 x i32]]* %2, i64 0, i64 %56
  %58 = load i32, i32* %6, align 4
  %59 = sext i32 %58 to i64
  %60 = getelementptr inbounds [100 x i32], [100 x i32]* %57, i64 0, i64 %59
  %61 = load i32, i32* %60, align 4
  %62 = call i32 (i8*, ...) @printf(i8* getelementptr inbounds ([4 x i8], [4 x i8]* @.str.2, i64 0, i64 0), i32 %61)
  br label %63

63:                                               ; preds = %54
  %64 = load i32, i32* %6, align 4
  %65 = add nsw i32 %64, 1
  store i32 %65, i32* %6, align 4
  br label %49

66:                                               ; preds = %49
  %67 = load i32, i32* %4, align 4
  %68 = sub nsw i32 %67, 1
  store i32 %68, i32* %6, align 4
  %69 = load i32, i32* %7, align 4
  store i32 %69, i32* %5, align 4
  br label %70

70:                                               ; preds = %84, %66
  %71 = load i32, i32* %5, align 4
  %72 = load i32, i32* %3, align 4
  %73 = sub nsw i32 %72, 1
  %74 = icmp slt i32 %71, %73
  br i1 %74, label %75, label %87

75:                                               ; preds = %70
  %76 = load i32, i32* %5, align 4
  %77 = sext i32 %76 to i64
  %78 = getelementptr inbounds [100 x [100 x i32]], [100 x [100 x i32]]* %2, i64 0, i64 %77
  %79 = load i32, i32* %6, align 4
  %80 = sext i32 %79 to i64
  %81 = getelementptr inbounds [100 x i32], [100 x i32]* %78, i64 0, i64 %80
  %82 = load i32, i32* %81, align 4
  %83 = call i32 (i8*, ...) @printf(i8* getelementptr inbounds ([4 x i8], [4 x i8]* @.str.2, i64 0, i64 0), i32 %82)
  br label %84

84:                                               ; preds = %75
  %85 = load i32, i32* %5, align 4
  %86 = add nsw i32 %85, 1
  store i32 %86, i32* %5, align 4
  br label %70

87:                                               ; preds = %70
  %88 = load i32, i32* %3, align 4
  %89 = sub nsw i32 %88, 1
  store i32 %89, i32* %5, align 4
  %90 = load i32, i32* %4, align 4
  %91 = sub nsw i32 %90, 1
  store i32 %91, i32* %6, align 4
  br label %92

92:                                               ; preds = %105, %87
  %93 = load i32, i32* %6, align 4
  %94 = load i32, i32* %7, align 4
  %95 = icmp sgt i32 %93, %94
  br i1 %95, label %96, label %108

96:                                               ; preds = %92
  %97 = load i32, i32* %5, align 4
  %98 = sext i32 %97 to i64
  %99 = getelementptr inbounds [100 x [100 x i32]], [100 x [100 x i32]]* %2, i64 0, i64 %98
  %100 = load i32, i32* %6, align 4
  %101 = sext i32 %100 to i64
  %102 = getelementptr inbounds [100 x i32], [100 x i32]* %99, i64 0, i64 %101
  %103 = load i32, i32* %102, align 4
  %104 = call i32 (i8*, ...) @printf(i8* getelementptr inbounds ([4 x i8], [4 x i8]* @.str.2, i64 0, i64 0), i32 %103)
  br label %105

105:                                              ; preds = %96
  %106 = load i32, i32* %6, align 4
  %107 = add nsw i32 %106, -1
  store i32 %107, i32* %6, align 4
  br label %92

108:                                              ; preds = %92
  %109 = load i32, i32* %7, align 4
  store i32 %109, i32* %6, align 4
  %110 = load i32, i32* %3, align 4
  %111 = sub nsw i32 %110, 1
  store i32 %111, i32* %5, align 4
  br label %112

112:                                              ; preds = %125, %108
  %113 = load i32, i32* %5, align 4
  %114 = load i32, i32* %7, align 4
  %115 = icmp sgt i32 %113, %114
  br i1 %115, label %116, label %128

116:                                              ; preds = %112
  %117 = load i32, i32* %5, align 4
  %118 = sext i32 %117 to i64
  %119 = getelementptr inbounds [100 x [100 x i32]], [100 x [100 x i32]]* %2, i64 0, i64 %118
  %120 = load i32, i32* %6, align 4
  %121 = sext i32 %120 to i64
  %122 = getelementptr inbounds [100 x i32], [100 x i32]* %119, i64 0, i64 %121
  %123 = load i32, i32* %122, align 4
  %124 = call i32 (i8*, ...) @printf(i8* getelementptr inbounds ([4 x i8], [4 x i8]* @.str.2, i64 0, i64 0), i32 %123)
  br label %125

125:                                              ; preds = %116
  %126 = load i32, i32* %5, align 4
  %127 = add nsw i32 %126, -1
  store i32 %127, i32* %5, align 4
  br label %112

128:                                              ; preds = %112
  %129 = load i32, i32* %4, align 4
  %130 = add nsw i32 %129, -1
  store i32 %130, i32* %4, align 4
  %131 = load i32, i32* %3, align 4
  %132 = add nsw i32 %131, -1
  store i32 %132, i32* %3, align 4
  %133 = load i32, i32* %7, align 4
  %134 = add nsw i32 %133, 1
  store i32 %134, i32* %7, align 4
  br label %34

135:                                              ; preds = %44
  %136 = load i32, i32* %7, align 4
  %137 = load i32, i32* %3, align 4
  %138 = sub nsw i32 %137, 1
  %139 = icmp eq i32 %136, %138
  br i1 %139, label %140, label %160

140:                                              ; preds = %135
  %141 = load i32, i32* %7, align 4
  store i32 %141, i32* %5, align 4
  %142 = load i32, i32* %7, align 4
  store i32 %142, i32* %6, align 4
  br label %143

143:                                              ; preds = %156, %140
  %144 = load i32, i32* %6, align 4
  %145 = load i32, i32* %4, align 4
  %146 = icmp slt i32 %144, %145
  br i1 %146, label %147, label %159

147:                                              ; preds = %143
  %148 = load i32, i32* %5, align 4
  %149 = sext i32 %148 to i64
  %150 = getelementptr inbounds [100 x [100 x i32]], [100 x [100 x i32]]* %2, i64 0, i64 %149
  %151 = load i32, i32* %6, align 4
  %152 = sext i32 %151 to i64
  %153 = getelementptr inbounds [100 x i32], [100 x i32]* %150, i64 0, i64 %152
  %154 = load i32, i32* %153, align 4
  %155 = call i32 (i8*, ...) @printf(i8* getelementptr inbounds ([4 x i8], [4 x i8]* @.str.2, i64 0, i64 0), i32 %154)
  br label %156

156:                                              ; preds = %147
  %157 = load i32, i32* %6, align 4
  %158 = add nsw i32 %157, 1
  store i32 %158, i32* %6, align 4
  br label %143

159:                                              ; preds = %143
  br label %186

160:                                              ; preds = %135
  %161 = load i32, i32* %7, align 4
  %162 = load i32, i32* %4, align 4
  %163 = sub nsw i32 %162, 1
  %164 = icmp eq i32 %161, %163
  br i1 %164, label %165, label %185

165:                                              ; preds = %160
  %166 = load i32, i32* %7, align 4
  store i32 %166, i32* %6, align 4
  %167 = load i32, i32* %7, align 4
  store i32 %167, i32* %5, align 4
  br label %168

168:                                              ; preds = %181, %165
  %169 = load i32, i32* %5, align 4
  %170 = load i32, i32* %3, align 4
  %171 = icmp slt i32 %169, %170
  br i1 %171, label %172, label %184

172:                                              ; preds = %168
  %173 = load i32, i32* %5, align 4
  %174 = sext i32 %173 to i64
  %175 = getelementptr inbounds [100 x [100 x i32]], [100 x [100 x i32]]* %2, i64 0, i64 %174
  %176 = load i32, i32* %6, align 4
  %177 = sext i32 %176 to i64
  %178 = getelementptr inbounds [100 x i32], [100 x i32]* %175, i64 0, i64 %177
  %179 = load i32, i32* %178, align 4
  %180 = call i32 (i8*, ...) @printf(i8* getelementptr inbounds ([4 x i8], [4 x i8]* @.str.2, i64 0, i64 0), i32 %179)
  br label %181

181:                                              ; preds = %172
  %182 = load i32, i32* %5, align 4
  %183 = add nsw i32 %182, 1
  store i32 %183, i32* %5, align 4
  br label %168

184:                                              ; preds = %168
  br label %185

185:                                              ; preds = %184, %160
  br label %186

186:                                              ; preds = %185, %159
  ret i32 0
}

declare dso_local i32 @__isoc99_scanf(i8*, ...) #1

declare dso_local i32 @printf(i8*, ...) #1


!llvm.module.flags = !{!0}
!llvm.ident = !{!1}

!0 = !{i32 1, !"wchar_size", i32 4}
!1 = !{!"clang version 10.0.0-4ubuntu1 "}
